; Function Attrs: mustprogress uwtable
define hidden range(i32 -16, 1) i32 @mbedtls_mpi_mod_mpi(ptr noundef captures(address) %0, ptr noundef captures(address) %1, ptr noundef captures(address) %2) local_unnamed_addr #1 {
  %4 = getelementptr inbounds nuw i8, ptr %2, i64 8
  %5 = load i64, ptr %4, align 8, !tbaa !12
  %.not44.i.i = icmp eq i64 %5, 0
  br i1 %.not44.i.i, label %mbedtls_mpi_cmp_int.exit.thread, label %.lr.ph.i.i

.lr.ph.i.i:                                       ; preds = %3
  %6 = getelementptr inbounds nuw i8, ptr %2, i64 16
  %7 = load ptr, ptr %6, align 8, !tbaa !11
  %invariant.gep.i.i = getelementptr i8, ptr %7, i64 -8
  br label %8

8:                                                ; preds = %10, %.lr.ph.i.i
  %.03545.i.i = phi i64 [ %5, %.lr.ph.i.i ], [ %11, %10 ]
  %gep.i.i = getelementptr i64, ptr %invariant.gep.i.i, i64 %.03545.i.i
  %9 = load i64, ptr %gep.i.i, align 8, !tbaa !13
  %.not39.i.i = icmp eq i64 %9, 0
  br i1 %.not39.i.i, label %10, label %mbedtls_mpi_cmp_int.exit

10:                                               ; preds = %8
  %11 = add i64 %.03545.i.i, -1
  %.not.i.i = icmp eq i64 %11, 0
  br i1 %.not.i.i, label %mbedtls_mpi_cmp_int.exit.thread, label %8, !llvm.loop !28

mbedtls_mpi_cmp_int.exit:                         ; preds = %8
  %12 = load i32, ptr %2, align 8, !tbaa !3
  %13 = icmp slt i32 %12, 0
  br i1 %13, label %mbedtls_mpi_cmp_mpi.exit.thread41, label %mbedtls_mpi_cmp_int.exit.thread

mbedtls_mpi_cmp_int.exit.thread:                  ; preds = %10, %3, %mbedtls_mpi_cmp_int.exit
  %14 = tail call i32 @mbedtls_mpi_div_mpi(ptr noundef null, ptr noundef %0, ptr noundef %1, ptr noundef %2)
  %.not = icmp eq i32 %14, 0
  br i1 %.not, label %.preheader43, label %mbedtls_mpi_cmp_mpi.exit.thread41

.preheader43:                                     ; preds = %mbedtls_mpi_cmp_int.exit.thread
  %15 = getelementptr inbounds nuw i8, ptr %0, i64 8
  %16 = getelementptr inbounds nuw i8, ptr %0, i64 16
  br label %17

17:                                               ; preds = %.preheader43, %26
  %18 = load i64, ptr %15, align 8, !tbaa !12
  %.not44.i.i23 = icmp eq i64 %18, 0
  br i1 %.not44.i.i23, label %.preheader, label %.lr.ph.i.i24

.lr.ph.i.i24:                                     ; preds = %17
  %19 = load ptr, ptr %16, align 8, !tbaa !11
  %invariant.gep.i.i25 = getelementptr i8, ptr %19, i64 -8
  br label %20

20:                                               ; preds = %22, %.lr.ph.i.i24
  %.03545.i.i26 = phi i64 [ %18, %.lr.ph.i.i24 ], [ %23, %22 ]
  %gep.i.i27 = getelementptr i64, ptr %invariant.gep.i.i25, i64 %.03545.i.i26
  %21 = load i64, ptr %gep.i.i27, align 8, !tbaa !13
  %.not39.i.i28 = icmp eq i64 %21, 0
  br i1 %.not39.i.i28, label %22, label %.lr.ph51.i.i29

22:                                               ; preds = %20
  %23 = add i64 %.03545.i.i26, -1
  %.not.i.i33 = icmp eq i64 %23, 0
  br i1 %.not.i.i33, label %.preheader, label %20, !llvm.loop !28

.lr.ph51.i.i29:                                   ; preds = %20
  %24 = load i32, ptr %0, align 8, !tbaa !3
  %25 = icmp slt i32 %24, 0
  br i1 %25, label %26, label %.preheader

26:                                               ; preds = %.lr.ph51.i.i29
  %27 = tail call i32 @mbedtls_mpi_add_mpi(ptr noundef nonnull %0, ptr noundef nonnull %0, ptr noundef %2)
  %.not22 = icmp eq i32 %27, 0
  br i1 %.not22, label %17, label %mbedtls_mpi_cmp_mpi.exit.thread41, !llvm.loop !62

.preheader:                                       ; preds = %.lr.ph51.i.i29, %17, %22
  %28 = getelementptr inbounds nuw i8, ptr %2, i64 16
  br label %29

29:                                               ; preds = %.preheader, %mbedtls_mpi_cmp_mpi.exit.thread
  %30 = load i64, ptr %15, align 8, !tbaa !12
  %.not44.i = icmp eq i64 %30, 0
  br i1 %.not44.i, label %._crit_edge.i, label %.lr.ph.i

.lr.ph.i:                                         ; preds = %29
  %31 = load ptr, ptr %16, align 8, !tbaa !11
  %invariant.gep.i = getelementptr i8, ptr %31, i64 -8
  br label %32

32:                                               ; preds = %34, %.lr.ph.i
  %.03545.i = phi i64 [ %30, %.lr.ph.i ], [ %35, %34 ]
  %gep.i = getelementptr i64, ptr %invariant.gep.i, i64 %.03545.i
  %33 = load i64, ptr %gep.i, align 8, !tbaa !13
  %.not39.i = icmp eq i64 %33, 0
  br i1 %.not39.i, label %34, label %._crit_edge.i

34:                                               ; preds = %32
  %35 = add i64 %.03545.i, -1
  %.not.i = icmp eq i64 %35, 0
  br i1 %.not.i, label %._crit_edge.i, label %32, !llvm.loop !28

._crit_edge.i:                                    ; preds = %34, %32, %29
  %.035.lcssa.i = phi i64 [ 0, %29 ], [ 0, %34 ], [ %.03545.i, %32 ]
  %36 = load i64, ptr %4, align 8, !tbaa !12
  %.not4048.i = icmp eq i64 %36, 0
  br i1 %.not4048.i, label %._crit_edge52.i, label %.lr.ph51.i

.lr.ph51.i:                                       ; preds = %._crit_edge.i
  %37 = load ptr, ptr %28, align 8, !tbaa !11
  %invariant.gep56.i = getelementptr i8, ptr %37, i64 -8
  br label %38

38:                                               ; preds = %40, %.lr.ph51.i
  %.049.i = phi i64 [ %36, %.lr.ph51.i ], [ %41, %40 ]
  %gep57.i = getelementptr i64, ptr %invariant.gep56.i, i64 %.049.i
  %39 = load i64, ptr %gep57.i, align 8, !tbaa !13
  %.not41.i = icmp eq i64 %39, 0
  br i1 %.not41.i, label %40, label %._crit_edge52.i

40:                                               ; preds = %38
  %41 = add i64 %.049.i, -1
  %.not40.i = icmp eq i64 %41, 0
  br i1 %.not40.i, label %._crit_edge52.i, label %38, !llvm.loop !44

._crit_edge52.i:                                  ; preds = %40, %38, %._crit_edge.i
  %.0.lcssa.i = phi i64 [ 0, %._crit_edge.i ], [ 0, %40 ], [ %.049.i, %38 ]
  %42 = or i64 %.0.lcssa.i, %.035.lcssa.i
  %or.cond.i = icmp eq i64 %42, 0
  br i1 %or.cond.i, label %mbedtls_mpi_cmp_mpi.exit.thread, label %43

43:                                               ; preds = %._crit_edge52.i
  %44 = icmp ugt i64 %.035.lcssa.i, %.0.lcssa.i
  br i1 %44, label %45, label %47

45:                                               ; preds = %43
  %46 = load i32, ptr %0, align 8, !tbaa !3
  br label %mbedtls_mpi_cmp_mpi.exit

47:                                               ; preds = %43
  %48 = icmp ugt i64 %.0.lcssa.i, %.035.lcssa.i
  br i1 %48, label %49, label %52

49:                                               ; preds = %47
  %50 = load i32, ptr %2, align 8, !tbaa !3
  %51 = sub nsw i32 0, %50
  br label %mbedtls_mpi_cmp_mpi.exit

52:                                               ; preds = %47
  %53 = load i32, ptr %0, align 8, !tbaa !3
  %54 = icmp sgt i32 %53, 0
  %55 = load i32, ptr %2, align 8, !tbaa !3
  br i1 %54, label %56, label %58

56:                                               ; preds = %52
  %57 = icmp slt i32 %55, 0
  br i1 %57, label %mbedtls_mpi_cmp_mpi.exit.thread, label %.preheader.i.preheader

58:                                               ; preds = %52
  %59 = icmp sgt i32 %55, 0
  %60 = icmp ne i32 %53, 0
  %or.cond43.i = and i1 %60, %59
  br i1 %or.cond43.i, label %mbedtls_mpi_cmp_mpi.exit.thread41, label %.preheader.i.preheader

.preheader.i.preheader:                           ; preds = %58, %56
  br label %.preheader.i

.preheader.i:                                     ; preds = %.preheader.i.preheader, %70
  %.1.i = phi i64 [ %63, %70 ], [ %.035.lcssa.i, %.preheader.i.preheader ]
  %.not42.i = icmp eq i64 %.1.i, 0
  br i1 %.not42.i, label %mbedtls_mpi_cmp_mpi.exit.thread, label %61

61:                                               ; preds = %.preheader.i
  %62 = load ptr, ptr %16, align 8, !tbaa !11
  %63 = add i64 %.1.i, -1
  %64 = getelementptr inbounds nuw i64, ptr %62, i64 %63
  %65 = load i64, ptr %64, align 8, !tbaa !13
  %66 = load ptr, ptr %28, align 8, !tbaa !11
  %67 = getelementptr inbounds nuw i64, ptr %66, i64 %63
  %68 = load i64, ptr %67, align 8, !tbaa !13
  %69 = icmp ugt i64 %65, %68
  br i1 %69, label %mbedtls_mpi_cmp_mpi.exit, label %70

70:                                               ; preds = %61
  %71 = icmp ult i64 %65, %68
  br i1 %71, label %72, label %.preheader.i, !llvm.loop !45

72:                                               ; preds = %70
  %73 = sub nsw i32 0, %53
  br label %mbedtls_mpi_cmp_mpi.exit

mbedtls_mpi_cmp_mpi.exit:                         ; preds = %61, %45, %49, %72
  %.036.i = phi i32 [ %46, %45 ], [ %51, %49 ], [ %73, %72 ], [ %53, %61 ]
  %74 = icmp sgt i32 %.036.i, -1
  br i1 %74, label %mbedtls_mpi_cmp_mpi.exit.thread, label %mbedtls_mpi_cmp_mpi.exit.thread41

mbedtls_mpi_cmp_mpi.exit.thread:                  ; preds = %.preheader.i, %56, %._crit_edge52.i, %mbedtls_mpi_cmp_mpi.exit
  %75 = tail call i32 @mbedtls_mpi_sub_mpi(ptr noundef %0, ptr noundef %0, ptr noundef %2)
  %.not21 = icmp eq i32 %75, 0
  br i1 %.not21, label %29, label %mbedtls_mpi_cmp_mpi.exit.thread41, !llvm.loop !63

mbedtls_mpi_cmp_mpi.exit.thread41:                ; preds = %26, %58, %mbedtls_mpi_cmp_mpi.exit.thread, %mbedtls_mpi_cmp_mpi.exit, %mbedtls_mpi_cmp_int.exit.thread, %mbedtls_mpi_cmp_int.exit
  %.014 = phi i32 [ -10, %mbedtls_mpi_cmp_int.exit ], [ %14, %mbedtls_mpi_cmp_int.exit.thread ], [ 0, %58 ], [ 0, %mbedtls_mpi_cmp_mpi.exit ], [ %75, %mbedtls_mpi_cmp_mpi.exit.thread ], [ %27, %26 ]
  ret i32 %.014
}